target datalayout = "e-m:e-p270:32:32-p271:32:32-p272:64:64-i64:64-i128:128-f80:128-n8:16:32:64-S128"
target triple = "x86_64-pc-linux-gnu"

@.str.14 = private unnamed_addr constant [29 x i8] c"../openssl/test/sslapitest.c\00", align 1
@.str.164 = private unnamed_addr constant [4 x i8] c"buf\00", align 1
@.str.174 = private unnamed_addr constant [8 x i8] c"written\00", align 1
@.str.218 = private unnamed_addr constant [2 x i8] c"0\00", align 1
@serverpsk = internal global ptr null, align 8
@clientpsk = internal global ptr null, align 8
@.str.367 = private unnamed_addr constant [61 x i8] c"SSL_read_early_data(serverssl, buf, sizeof(buf), &readbytes)\00", align 1
@.str.369 = private unnamed_addr constant [37 x i8] c"SSL_get_early_data_status(serverssl)\00", align 1
@.str.429 = private unnamed_addr constant [10 x i8] c"readbytes\00", align 1
@.str.433 = private unnamed_addr constant [93 x i8] c"setupearly_data_test(&cctx, &sctx, &clientssl, &serverssl, &sess, idx, SHA384_DIGEST_LENGTH)\00", align 1
@.str.435 = private unnamed_addr constant [6 x i8] c"Hello\00", align 1
@.str.436 = private unnamed_addr constant [13 x i8] c"strlen(MSG1)\00", align 1
@.str.438 = private unnamed_addr constant [5 x i8] c"MSG1\00", align 1
@.str.440 = private unnamed_addr constant [7 x i8] c"World.\00", align 1
@.str.441 = private unnamed_addr constant [13 x i8] c"strlen(MSG2)\00", align 1
@.str.442 = private unnamed_addr constant [53 x i8] c"SSL_read_ex(clientssl, buf, sizeof(buf), &readbytes)\00", align 1
@.str.443 = private unnamed_addr constant [5 x i8] c"MSG2\00", align 1
@.str.455 = private unnamed_addr constant [37 x i8] c"SSL_get_early_data_status(clientssl)\00", align 1
@.str.463 = private unnamed_addr constant [27 x i8] c"SSL_READ_EARLY_DATA_FINISH\00", align 1
@.str.468 = private unnamed_addr constant [53 x i8] c"SSL_read_ex(serverssl, buf, sizeof(buf), &readbytes)\00", align 1
@.str.516 = private unnamed_addr constant [54 x i8] c"SSL_write_ex(clientssl, MSG1, strlen(MSG1), &written)\00", align 1
@.str.517 = private unnamed_addr constant [24 x i8] c"SSL_EARLY_DATA_NOT_SENT\00", align 1

; Function Attrs: nounwind uwtable
define internal i32 @test_early_data_not_sent(i32 noundef %0) #0 {
  %2 = alloca i32, align 4
  %3 = alloca ptr, align 8
  %4 = alloca ptr, align 8
  %5 = alloca ptr, align 8
  %6 = alloca ptr, align 8
  %7 = alloca i32, align 4
  %8 = alloca ptr, align 8
  %9 = alloca [20 x i8], align 16
  %10 = alloca i64, align 8
  %11 = alloca i64, align 8
  store i32 %0, ptr %2, align 4, !tbaa !13
  call void @llvm.lifetime.start.p0(i64 8, ptr %3) #9
  store ptr null, ptr %3, align 8, !tbaa !19
  call void @llvm.lifetime.start.p0(i64 8, ptr %4) #9
  store ptr null, ptr %4, align 8, !tbaa !19
  call void @llvm.lifetime.start.p0(i64 8, ptr %5) #9
  store ptr null, ptr %5, align 8, !tbaa !21
  call void @llvm.lifetime.start.p0(i64 8, ptr %6) #9
  store ptr null, ptr %6, align 8, !tbaa !21
  call void @llvm.lifetime.start.p0(i64 4, ptr %7) #9
  store i32 0, ptr %7, align 4, !tbaa !13
  call void @llvm.lifetime.start.p0(i64 8, ptr %8) #9
  store ptr null, ptr %8, align 8, !tbaa !33
  call void @llvm.lifetime.start.p0(i64 20, ptr %9) #9
  call void @llvm.lifetime.start.p0(i64 8, ptr %10) #9
  call void @llvm.lifetime.start.p0(i64 8, ptr %11) #9
  %12 = load i32, ptr %2, align 4, !tbaa !13
  %13 = call i32 @setupearly_data_test(ptr noundef %3, ptr noundef %4, ptr noundef %5, ptr noundef %6, ptr noundef %8, i32 noundef %12, i64 noundef 48)
  %14 = icmp ne i32 %13, 0
  %15 = zext i1 %14 to i32
  %16 = call i32 @test_true(ptr noundef @.str.14, i32 noundef 4181, ptr noundef @.str.433, i32 noundef %15)
  %17 = icmp ne i32 %16, 0
  br i1 %17, label %19, label %18

18:                                               ; preds = %1
  br label %97

19:                                               ; preds = %1
  %20 = load ptr, ptr %5, align 8, !tbaa !21
  call void @SSL_set_connect_state(ptr noundef %20)
  %21 = load ptr, ptr %5, align 8, !tbaa !21
  %22 = call i32 @SSL_write_ex(ptr noundef %21, ptr noundef @.str.435, i64 noundef 5, ptr noundef %11)
  %23 = icmp ne i32 %22, 0
  %24 = zext i1 %23 to i32
  %25 = call i32 @test_false(ptr noundef @.str.14, i32 noundef 4186, ptr noundef @.str.516, i32 noundef %24)
  %26 = icmp ne i32 %25, 0
  br i1 %26, label %28, label %27

27:                                               ; preds = %19
  br label %97

28:                                               ; preds = %19
  %29 = load ptr, ptr %6, align 8, !tbaa !21
  %30 = getelementptr inbounds [20 x i8], ptr %9, i64 0, i64 0
  %31 = call i32 @SSL_read_early_data(ptr noundef %29, ptr noundef %30, i64 noundef 20, ptr noundef %10)
  %32 = call i32 @test_int_eq(ptr noundef @.str.14, i32 noundef 4192, ptr noundef @.str.367, ptr noundef @.str.463, i32 noundef %31, i32 noundef 2)
  %33 = icmp ne i32 %32, 0
  br i1 %33, label %34, label %48

34:                                               ; preds = %28
  %35 = load i64, ptr %10, align 8, !tbaa !17
  %36 = call i32 @test_size_t_eq(ptr noundef @.str.14, i32 noundef 4193, ptr noundef @.str.429, ptr noundef @.str.218, i64 noundef %35, i64 noundef 0)
  %37 = icmp ne i32 %36, 0
  br i1 %37, label %38, label %48

38:                                               ; preds = %34
  %39 = load ptr, ptr %6, align 8, !tbaa !21
  %40 = call i32 @SSL_get_early_data_status(ptr noundef %39)
  %41 = call i32 @test_int_eq(ptr noundef @.str.14, i32 noundef 4195, ptr noundef @.str.369, ptr noundef @.str.517, i32 noundef %40, i32 noundef 0)
  %42 = icmp ne i32 %41, 0
  br i1 %42, label %43, label %48

43:                                               ; preds = %38
  %44 = load ptr, ptr %5, align 8, !tbaa !21
  %45 = call i32 @SSL_get_early_data_status(ptr noundef %44)
  %46 = call i32 @test_int_eq(ptr noundef @.str.14, i32 noundef 4197, ptr noundef @.str.455, ptr noundef @.str.517, i32 noundef %45, i32 noundef 0)
  %47 = icmp ne i32 %46, 0
  br i1 %47, label %49, label %48

48:                                               ; preds = %43, %38, %34, %28
  br label %97

49:                                               ; preds = %43
  %50 = load ptr, ptr %5, align 8, !tbaa !21
  %51 = call i32 @SSL_write_ex(ptr noundef %50, ptr noundef @.str.435, i64 noundef 5, ptr noundef %11)
  %52 = icmp ne i32 %51, 0
  %53 = zext i1 %52 to i32
  %54 = call i32 @test_true(ptr noundef @.str.14, i32 noundef 4201, ptr noundef @.str.516, i32 noundef %53)
  %55 = icmp ne i32 %54, 0
  br i1 %55, label %56, label %81

56:                                               ; preds = %49
  %57 = load i64, ptr %11, align 8, !tbaa !17
  %58 = call i32 @test_size_t_eq(ptr noundef @.str.14, i32 noundef 4202, ptr noundef @.str.174, ptr noundef @.str.436, i64 noundef %57, i64 noundef 5)
  %59 = icmp ne i32 %58, 0
  br i1 %59, label %60, label %81

60:                                               ; preds = %56
  %61 = load ptr, ptr %6, align 8, !tbaa !21
  %62 = getelementptr inbounds [20 x i8], ptr %9, i64 0, i64 0
  %63 = call i32 @SSL_read_ex(ptr noundef %61, ptr noundef %62, i64 noundef 20, ptr noundef %10)
  %64 = icmp ne i32 %63, 0
  %65 = zext i1 %64 to i32
  %66 = call i32 @test_true(ptr noundef @.str.14, i32 noundef 4203, ptr noundef @.str.468, i32 noundef %65)
  %67 = icmp ne i32 %66, 0
  br i1 %67, label %68, label %81

68:                                               ; preds = %60
  %69 = getelementptr inbounds [20 x i8], ptr %9, i64 0, i64 0
  %70 = load i64, ptr %10, align 8, !tbaa !17
  %71 = call i32 @test_mem_eq(ptr noundef @.str.14, i32 noundef 4204, ptr noundef @.str.164, ptr noundef @.str.438, ptr noundef %69, i64 noundef %70, ptr noundef @.str.435, i64 noundef 5)
  %72 = icmp ne i32 %71, 0
  br i1 %72, label %73, label %81

73:                                               ; preds = %68
  %74 = load ptr, ptr %6, align 8, !tbaa !21
  %75 = call i32 @SSL_write_ex(ptr noundef %74, ptr noundef @.str.440, i64 noundef 6, ptr noundef %11)
  %76 = icmp ne i32 %75, 0
  br i1 %76, label %77, label %81

77:                                               ; preds = %73
  %78 = load i64, ptr %11, align 8, !tbaa !17
  %79 = call i32 @test_size_t_eq(ptr noundef @.str.14, i32 noundef 4206, ptr noundef @.str.174, ptr noundef @.str.441, i64 noundef %78, i64 noundef 6)
  %80 = icmp ne i32 %79, 0
  br i1 %80, label %82, label %81

81:                                               ; preds = %77, %73, %68, %60, %56, %49
  br label %97

82:                                               ; preds = %77
  %83 = load ptr, ptr %5, align 8, !tbaa !21
  %84 = getelementptr inbounds [20 x i8], ptr %9, i64 0, i64 0
  %85 = call i32 @SSL_read_ex(ptr noundef %83, ptr noundef %84, i64 noundef 20, ptr noundef %10)
  %86 = icmp ne i32 %85, 0
  %87 = zext i1 %86 to i32
  %88 = call i32 @test_true(ptr noundef @.str.14, i32 noundef 4209, ptr noundef @.str.442, i32 noundef %87)
  %89 = icmp ne i32 %88, 0
  br i1 %89, label %90, label %95

90:                                               ; preds = %82
  %91 = getelementptr inbounds [20 x i8], ptr %9, i64 0, i64 0
  %92 = load i64, ptr %10, align 8, !tbaa !17
  %93 = call i32 @test_mem_eq(ptr noundef @.str.14, i32 noundef 4210, ptr noundef @.str.164, ptr noundef @.str.443, ptr noundef %91, i64 noundef %92, ptr noundef @.str.440, i64 noundef 6)
  %94 = icmp ne i32 %93, 0
  br i1 %94, label %96, label %95

95:                                               ; preds = %90, %82
  br label %97

96:                                               ; preds = %90
  store i32 1, ptr %7, align 4, !tbaa !13
  br label %97

97:                                               ; preds = %96, %95, %81, %48, %27, %18
  %98 = load ptr, ptr %8, align 8, !tbaa !33
  call void @SSL_SESSION_free(ptr noundef %98)
  %99 = load ptr, ptr @clientpsk, align 8, !tbaa !33
  call void @SSL_SESSION_free(ptr noundef %99)
  %100 = load ptr, ptr @serverpsk, align 8, !tbaa !33
  call void @SSL_SESSION_free(ptr noundef %100)
  store ptr null, ptr @serverpsk, align 8, !tbaa !33
  store ptr null, ptr @clientpsk, align 8, !tbaa !33
  %101 = load ptr, ptr %6, align 8, !tbaa !21
  call void @SSL_free(ptr noundef %101)
  %102 = load ptr, ptr %5, align 8, !tbaa !21
  call void @SSL_free(ptr noundef %102)
  %103 = load ptr, ptr %4, align 8, !tbaa !19
  call void @SSL_CTX_free(ptr noundef %103)
  %104 = load ptr, ptr %3, align 8, !tbaa !19
  call void @SSL_CTX_free(ptr noundef %104)
  %105 = load i32, ptr %7, align 4, !tbaa !13
  call void @llvm.lifetime.end.p0(i64 8, ptr %11) #9
  call void @llvm.lifetime.end.p0(i64 8, ptr %10) #9
  call void @llvm.lifetime.end.p0(i64 20, ptr %9) #9
  call void @llvm.lifetime.end.p0(i64 8, ptr %8) #9
  call void @llvm.lifetime.end.p0(i64 4, ptr %7) #9
  call void @llvm.lifetime.end.p0(i64 8, ptr %6) #9
  call void @llvm.lifetime.end.p0(i64 8, ptr %5) #9
  call void @llvm.lifetime.end.p0(i64 8, ptr %4) #9
  call void @llvm.lifetime.end.p0(i64 8, ptr %3) #9
  ret i32 %105
}