; Function Attrs: nounwind uwtable
define internal range(i32 0, 2) i32 @test_early_data_not_sent(i32 noundef %0) #1 {
  %2 = alloca ptr, align 8
  %3 = alloca ptr, align 8
  %4 = alloca ptr, align 8
  %5 = alloca ptr, align 8
  %6 = alloca ptr, align 8
  %7 = alloca [20 x i8], align 16
  %8 = alloca i64, align 8
  %9 = alloca i64, align 8
  call void @llvm.lifetime.start.p0(i64 8, ptr nonnull %2) #24
  store ptr null, ptr %2, align 8, !tbaa !19
  call void @llvm.lifetime.start.p0(i64 8, ptr nonnull %3) #24
  store ptr null, ptr %3, align 8, !tbaa !19
  call void @llvm.lifetime.start.p0(i64 8, ptr nonnull %4) #24
  store ptr null, ptr %4, align 8, !tbaa !21
  call void @llvm.lifetime.start.p0(i64 8, ptr nonnull %5) #24
  store ptr null, ptr %5, align 8, !tbaa !21
  call void @llvm.lifetime.start.p0(i64 8, ptr nonnull %6) #24
  store ptr null, ptr %6, align 8, !tbaa !25
  call void @llvm.lifetime.start.p0(i64 20, ptr nonnull %7) #24
  call void @llvm.lifetime.start.p0(i64 8, ptr nonnull %8) #24
  call void @llvm.lifetime.start.p0(i64 8, ptr nonnull %9) #24
  %10 = call fastcc i32 @setupearly_data_test(ptr noundef %2, ptr noundef %3, ptr noundef %4, ptr noundef %5, ptr noundef nonnull %6, i32 noundef %0, i64 noundef 48)
  %11 = call i32 @test_true(ptr noundef nonnull @.str.14, i32 noundef 4181, ptr noundef nonnull @.str.433, i32 noundef %10) #24
  %.not = icmp eq i32 %11, 0
  br i1 %.not, label %67, label %12

12:                                               ; preds = %1
  %13 = load ptr, ptr %4, align 8, !tbaa !21
  call void @SSL_set_connect_state(ptr noundef %13) #24
  %14 = load ptr, ptr %4, align 8, !tbaa !21
  %15 = call i32 @SSL_write_ex(ptr noundef %14, ptr noundef nonnull @.str.435, i64 noundef 5, ptr noundef nonnull %9) #24
  %16 = icmp ne i32 %15, 0
  %17 = zext i1 %16 to i32
  %18 = call i32 @test_false(ptr noundef nonnull @.str.14, i32 noundef 4186, ptr noundef nonnull @.str.516, i32 noundef %17) #24
  %.not2 = icmp eq i32 %18, 0
  br i1 %.not2, label %67, label %19

19:                                               ; preds = %12
  %20 = load ptr, ptr %5, align 8, !tbaa !21
  %21 = call i32 @SSL_read_early_data(ptr noundef %20, ptr noundef nonnull %7, i64 noundef 20, ptr noundef nonnull %8) #24
  %22 = call i32 @test_int_eq(ptr noundef nonnull @.str.14, i32 noundef 4192, ptr noundef nonnull @.str.367, ptr noundef nonnull @.str.463, i32 noundef %21, i32 noundef 2) #24
  %.not3 = icmp eq i32 %22, 0
  br i1 %.not3, label %67, label %23

23:                                               ; preds = %19
  %24 = load i64, ptr %8, align 8, !tbaa !17
  %25 = call i32 @test_size_t_eq(ptr noundef nonnull @.str.14, i32 noundef 4193, ptr noundef nonnull @.str.429, ptr noundef nonnull @.str.218, i64 noundef %24, i64 noundef 0) #24
  %.not4 = icmp eq i32 %25, 0
  br i1 %.not4, label %67, label %26

26:                                               ; preds = %23
  %27 = load ptr, ptr %5, align 8, !tbaa !21
  %28 = call i32 @SSL_get_early_data_status(ptr noundef %27) #24
  %29 = call i32 @test_int_eq(ptr noundef nonnull @.str.14, i32 noundef 4195, ptr noundef nonnull @.str.369, ptr noundef nonnull @.str.517, i32 noundef %28, i32 noundef 0) #24
  %.not5 = icmp eq i32 %29, 0
  br i1 %.not5, label %67, label %30

30:                                               ; preds = %26
  %31 = load ptr, ptr %4, align 8, !tbaa !21
  %32 = call i32 @SSL_get_early_data_status(ptr noundef %31) #24
  %33 = call i32 @test_int_eq(ptr noundef nonnull @.str.14, i32 noundef 4197, ptr noundef nonnull @.str.455, ptr noundef nonnull @.str.517, i32 noundef %32, i32 noundef 0) #24
  %.not6 = icmp eq i32 %33, 0
  br i1 %.not6, label %67, label %34

34:                                               ; preds = %30
  %35 = load ptr, ptr %4, align 8, !tbaa !21
  %36 = call i32 @SSL_write_ex(ptr noundef %35, ptr noundef nonnull @.str.435, i64 noundef 5, ptr noundef nonnull %9) #24
  %37 = icmp ne i32 %36, 0
  %38 = zext i1 %37 to i32
  %39 = call i32 @test_true(ptr noundef nonnull @.str.14, i32 noundef 4201, ptr noundef nonnull @.str.516, i32 noundef %38) #24
  %.not7 = icmp eq i32 %39, 0
  br i1 %.not7, label %67, label %40

40:                                               ; preds = %34
  %41 = load i64, ptr %9, align 8, !tbaa !17
  %42 = call i32 @test_size_t_eq(ptr noundef nonnull @.str.14, i32 noundef 4202, ptr noundef nonnull @.str.174, ptr noundef nonnull @.str.436, i64 noundef %41, i64 noundef 5) #24
  %.not8 = icmp eq i32 %42, 0
  br i1 %.not8, label %67, label %43

43:                                               ; preds = %40
  %44 = load ptr, ptr %5, align 8, !tbaa !21
  %45 = call i32 @SSL_read_ex(ptr noundef %44, ptr noundef nonnull %7, i64 noundef 20, ptr noundef nonnull %8) #24
  %46 = icmp ne i32 %45, 0
  %47 = zext i1 %46 to i32
  %48 = call i32 @test_true(ptr noundef nonnull @.str.14, i32 noundef 4203, ptr noundef nonnull @.str.468, i32 noundef %47) #24
  %.not9 = icmp eq i32 %48, 0
  br i1 %.not9, label %67, label %49

49:                                               ; preds = %43
  %50 = load i64, ptr %8, align 8, !tbaa !17
  %51 = call i32 @test_mem_eq(ptr noundef nonnull @.str.14, i32 noundef 4204, ptr noundef nonnull @.str.164, ptr noundef nonnull @.str.438, ptr noundef nonnull %7, i64 noundef %50, ptr noundef nonnull @.str.435, i64 noundef 5) #24
  %.not10 = icmp eq i32 %51, 0
  br i1 %.not10, label %67, label %52

52:                                               ; preds = %49
  %53 = load ptr, ptr %5, align 8, !tbaa !21
  %54 = call i32 @SSL_write_ex(ptr noundef %53, ptr noundef nonnull @.str.440, i64 noundef 6, ptr noundef nonnull %9) #24
  %.not11 = icmp eq i32 %54, 0
  br i1 %.not11, label %67, label %55

55:                                               ; preds = %52
  %56 = load i64, ptr %9, align 8, !tbaa !17
  %57 = call i32 @test_size_t_eq(ptr noundef nonnull @.str.14, i32 noundef 4206, ptr noundef nonnull @.str.174, ptr noundef nonnull @.str.441, i64 noundef %56, i64 noundef 6) #24
  %.not12 = icmp eq i32 %57, 0
  br i1 %.not12, label %67, label %58

58:                                               ; preds = %55
  %59 = load ptr, ptr %4, align 8, !tbaa !21
  %60 = call i32 @SSL_read_ex(ptr noundef %59, ptr noundef nonnull %7, i64 noundef 20, ptr noundef nonnull %8) #24
  %61 = icmp ne i32 %60, 0
  %62 = zext i1 %61 to i32
  %63 = call i32 @test_true(ptr noundef nonnull @.str.14, i32 noundef 4209, ptr noundef nonnull @.str.442, i32 noundef %62) #24
  %.not13 = icmp eq i32 %63, 0
  br i1 %.not13, label %67, label %64

64:                                               ; preds = %58
  %65 = load i64, ptr %8, align 8, !tbaa !17
  %66 = call i32 @test_mem_eq(ptr noundef nonnull @.str.14, i32 noundef 4210, ptr noundef nonnull @.str.164, ptr noundef nonnull @.str.443, ptr noundef nonnull %7, i64 noundef %65, ptr noundef nonnull @.str.440, i64 noundef 6) #24
  %.not14 = icmp ne i32 %66, 0
  %spec.select = zext i1 %.not14 to i32
  br label %67

67:                                               ; preds = %64, %58, %34, %40, %43, %49, %52, %55, %19, %23, %26, %30, %12, %1
  %.0 = phi i32 [ 0, %58 ], [ 0, %55 ], [ 0, %52 ], [ 0, %49 ], [ 0, %43 ], [ 0, %40 ], [ 0, %34 ], [ 0, %30 ], [ 0, %26 ], [ 0, %23 ], [ 0, %19 ], [ 0, %12 ], [ 0, %1 ], [ %spec.select, %64 ]
  %68 = load ptr, ptr %6, align 8, !tbaa !25
  call void @SSL_SESSION_free(ptr noundef %68) #24
  %69 = load ptr, ptr @clientpsk, align 8, !tbaa !25
  call void @SSL_SESSION_free(ptr noundef %69) #24
  %70 = load ptr, ptr @serverpsk, align 8, !tbaa !25
  call void @SSL_SESSION_free(ptr noundef %70) #24
  store ptr null, ptr @serverpsk, align 8, !tbaa !25
  store ptr null, ptr @clientpsk, align 8, !tbaa !25
  %71 = load ptr, ptr %5, align 8, !tbaa !21
  call void @SSL_free(ptr noundef %71) #24
  %72 = load ptr, ptr %4, align 8, !tbaa !21
  call void @SSL_free(ptr noundef %72) #24
  %73 = load ptr, ptr %3, align 8, !tbaa !19
  call void @SSL_CTX_free(ptr noundef %73) #24
  %74 = load ptr, ptr %2, align 8, !tbaa !19
  call void @SSL_CTX_free(ptr noundef %74) #24
  call void @llvm.lifetime.end.p0(i64 8, ptr nonnull %9) #24
  call void @llvm.lifetime.end.p0(i64 8, ptr nonnull %8) #24
  call void @llvm.lifetime.end.p0(i64 20, ptr nonnull %7) #24
  call void @llvm.lifetime.end.p0(i64 8, ptr nonnull %6) #24
  call void @llvm.lifetime.end.p0(i64 8, ptr nonnull %5) #24
  call void @llvm.lifetime.end.p0(i64 8, ptr nonnull %4) #24
  call void @llvm.lifetime.end.p0(i64 8, ptr nonnull %3) #24
  call void @llvm.lifetime.end.p0(i64 8, ptr nonnull %2) #24
  ret i32 %.0
}